target datalayout = "e-m:e-p270:32:32-p271:32:32-p272:64:64-i64:64-i128:128-f80:128-n8:16:32:64-S128"
target triple = "x86_64-pc-linux-gnu"

%struct.Expr = type { i32 }
%struct.CoerceToDomain = type { %struct.Expr, ptr, i32, i32, i32, i32, i32 }
%struct.Node = type { i32 }

; Function Attrs: inlinehint nounwind willreturn memory(read) uwtable
define available_externally i32 @atoi(ptr noundef nonnull %0) #6 {
  %2 = alloca ptr, align 8
  store ptr %0, ptr %2, align 8
  %3 = load ptr, ptr %2, align 8
  %4 = call i64 @strtol(ptr noundef %3, ptr noundef null, i32 noundef 10) #9
  %5 = trunc i64 %4 to i32
  ret i32 %5
}

; Function Attrs: inlinehint nounwind uwtable
define internal ptr @newNode(i64 noundef %0, i32 noundef %1) #7 {
  %3 = alloca i64, align 8
  %4 = alloca i32, align 4
  %5 = alloca ptr, align 8
  store i64 %0, ptr %3, align 8
  store i32 %1, ptr %4, align 4
  call void @llvm.lifetime.start.p0(i64 8, ptr %5) #9
  %6 = load i64, ptr %3, align 8
  %7 = call ptr @palloc0(i64 noundef %6)
  store ptr %7, ptr %5, align 8
  %8 = load i32, ptr %4, align 4
  %9 = load ptr, ptr %5, align 8
  %10 = getelementptr inbounds nuw %struct.Node, ptr %9, i32 0, i32 0
  store i32 %8, ptr %10, align 4
  %11 = load ptr, ptr %5, align 8
  call void @llvm.lifetime.end.p0(i64 8, ptr %5) #9
  ret ptr %11
}

; Function Attrs: nounwind uwtable
define internal ptr @_readCoerceToDomain() #0 {
  %1 = alloca ptr, align 8
  %2 = alloca ptr, align 8
  %3 = alloca i32, align 4
  call void @llvm.lifetime.start.p0(i64 8, ptr %1) #9
  %4 = call ptr @newNode(i64 noundef 40, i32 noundef 55)
  store ptr %4, ptr %1, align 8
  call void @llvm.lifetime.start.p0(i64 8, ptr %2) #9
  call void @llvm.lifetime.start.p0(i64 4, ptr %3) #9
  %5 = call ptr @pg_strtok(ptr noundef %3)
  store ptr %5, ptr %2, align 8
  %6 = call ptr @nodeRead(ptr noundef null, i32 noundef 0)
  %7 = load ptr, ptr %1, align 8
  %8 = getelementptr inbounds nuw %struct.CoerceToDomain, ptr %7, i32 0, i32 1
  store ptr %6, ptr %8, align 8
  %9 = call ptr @pg_strtok(ptr noundef %3)
  store ptr %9, ptr %2, align 8
  %10 = call ptr @pg_strtok(ptr noundef %3)
  store ptr %10, ptr %2, align 8
  %11 = load ptr, ptr %2, align 8
  %12 = call i64 @strtoul(ptr noundef %11, ptr noundef null, i32 noundef 10) #9
  %13 = trunc i64 %12 to i32
  %14 = load ptr, ptr %1, align 8
  %15 = getelementptr inbounds nuw %struct.CoerceToDomain, ptr %14, i32 0, i32 2
  store i32 %13, ptr %15, align 8
  %16 = call ptr @pg_strtok(ptr noundef %3)
  store ptr %16, ptr %2, align 8
  %17 = call ptr @pg_strtok(ptr noundef %3)
  store ptr %17, ptr %2, align 8
  %18 = load ptr, ptr %2, align 8
  %19 = call i32 @atoi(ptr noundef %18) #11
  %20 = load ptr, ptr %1, align 8
  %21 = getelementptr inbounds nuw %struct.CoerceToDomain, ptr %20, i32 0, i32 3
  store i32 %19, ptr %21, align 4
  %22 = call ptr @pg_strtok(ptr noundef %3)
  store ptr %22, ptr %2, align 8
  %23 = call ptr @pg_strtok(ptr noundef %3)
  store ptr %23, ptr %2, align 8
  %24 = load ptr, ptr %2, align 8
  %25 = call i64 @strtoul(ptr noundef %24, ptr noundef null, i32 noundef 10) #9
  %26 = trunc i64 %25 to i32
  %27 = load ptr, ptr %1, align 8
  %28 = getelementptr inbounds nuw %struct.CoerceToDomain, ptr %27, i32 0, i32 4
  store i32 %26, ptr %28, align 8
  %29 = call ptr @pg_strtok(ptr noundef %3)
  store ptr %29, ptr %2, align 8
  %30 = call ptr @pg_strtok(ptr noundef %3)
  store ptr %30, ptr %2, align 8
  %31 = load ptr, ptr %2, align 8
  %32 = call i32 @atoi(ptr noundef %31) #11
  %33 = load ptr, ptr %1, align 8
  %34 = getelementptr inbounds nuw %struct.CoerceToDomain, ptr %33, i32 0, i32 5
  store i32 %32, ptr %34, align 4
  %35 = call ptr @pg_strtok(ptr noundef %3)
  store ptr %35, ptr %2, align 8
  %36 = call ptr @pg_strtok(ptr noundef %3)
  store ptr %36, ptr %2, align 8
  %37 = load ptr, ptr %1, align 8
  %38 = getelementptr inbounds nuw %struct.CoerceToDomain, ptr %37, i32 0, i32 6
  store i32 -1, ptr %38, align 8
  %39 = load ptr, ptr %1, align 8
  call void @llvm.lifetime.end.p0(i64 4, ptr %3) #9
  call void @llvm.lifetime.end.p0(i64 8, ptr %2) #9
  call void @llvm.lifetime.end.p0(i64 8, ptr %1) #9
  ret ptr %39
}